; Function Attrs: nounwind uwtable
define internal fastcc void @uv__write_callbacks(ptr noundef %0) unnamed_addr #0 {
  %2 = alloca %struct.uv__queue, align 8
  call void @llvm.lifetime.start.p0(i64 16, ptr nonnull %2) #12
  %3 = getelementptr inbounds nuw i8, ptr %0, i64 208
  %4 = load ptr, ptr %3, align 8
  %.not = icmp eq ptr %3, %4
  br i1 %.not, label %.loopexit, label %uv__queue_move.exit

uv__queue_move.exit:                              ; preds = %1
  %5 = getelementptr inbounds nuw i8, ptr %0, i64 216
  %6 = load ptr, ptr %5, align 8
  %7 = getelementptr inbounds nuw i8, ptr %2, i64 8
  store ptr %6, ptr %7, align 8
  store ptr %2, ptr %6, align 8
  store ptr %4, ptr %2, align 8
  %8 = getelementptr inbounds nuw i8, ptr %4, i64 8
  %9 = load ptr, ptr %8, align 8
  store ptr %9, ptr %5, align 8
  store ptr %3, ptr %9, align 8
  store ptr %2, ptr %8, align 8
  %10 = load ptr, ptr %2, align 8
  %.not2122 = icmp eq ptr %2, %10
  br i1 %.not2122, label %.loopexit, label %.lr.ph

.lr.ph:                                           ; preds = %uv__queue_move.exit
  %11 = getelementptr inbounds nuw i8, ptr %0, i64 8
  %12 = getelementptr inbounds nuw i8, ptr %0, i64 96
  br label %13

13:                                               ; preds = %.lr.ph, %48
  %14 = phi ptr [ %10, %.lr.ph ], [ %49, %48 ]
  %15 = getelementptr inbounds i8, ptr %14, i64 -88
  %16 = load ptr, ptr %14, align 8
  %17 = getelementptr inbounds nuw i8, ptr %14, i64 8
  %18 = load ptr, ptr %17, align 8
  store ptr %16, ptr %18, align 8
  %19 = load ptr, ptr %17, align 8
  %20 = getelementptr inbounds nuw i8, ptr %16, i64 8
  store ptr %19, ptr %20, align 8
  %21 = load ptr, ptr %11, align 8
  %22 = getelementptr inbounds nuw i8, ptr %21, i64 32
  %23 = load i32, ptr %22, align 8
  %24 = add i32 %23, -1
  store i32 %24, ptr %22, align 8
  %25 = getelementptr inbounds nuw i8, ptr %14, i64 24
  %26 = load ptr, ptr %25, align 8
  %.not18 = icmp eq ptr %26, null
  br i1 %.not18, label %42, label %27

27:                                               ; preds = %13
  %28 = getelementptr inbounds nuw i8, ptr %14, i64 16
  %29 = load i32, ptr %28, align 8
  %30 = zext i32 %29 to i64
  %31 = getelementptr inbounds nuw %struct.uv_buf_t, ptr %26, i64 %30
  %32 = getelementptr inbounds nuw i8, ptr %14, i64 32
  %33 = load i32, ptr %32, align 8
  %34 = sub i32 %33, %29
  %35 = call i64 @uv__count_bufs(ptr noundef nonnull %31, i32 noundef %34) #12
  %36 = load i64, ptr %12, align 8
  %37 = sub i64 %36, %35
  store i64 %37, ptr %12, align 8
  %38 = load ptr, ptr %25, align 8
  %39 = getelementptr inbounds nuw i8, ptr %14, i64 40
  %.not19 = icmp eq ptr %38, %39
  br i1 %.not19, label %41, label %40

40:                                               ; preds = %27
  call void @uv__free(ptr noundef %38) #12
  br label %41

41:                                               ; preds = %40, %27
  store ptr null, ptr %25, align 8
  br label %42

42:                                               ; preds = %41, %13
  %43 = getelementptr inbounds i8, ptr %14, i64 -24
  %44 = load ptr, ptr %43, align 8
  %.not20 = icmp eq ptr %44, null
  br i1 %.not20, label %48, label %45

45:                                               ; preds = %42
  %46 = getelementptr inbounds nuw i8, ptr %14, i64 36
  %47 = load i32, ptr %46, align 4
  call void %44(ptr noundef nonnull %15, i32 noundef %47) #12
  br label %48

48:                                               ; preds = %45, %42
  %49 = load ptr, ptr %2, align 8
  %.not21 = icmp eq ptr %2, %49
  br i1 %.not21, label %.loopexit, label %13

.loopexit:                                        ; preds = %48, %uv__queue_move.exit, %1
  call void @llvm.lifetime.end.p0(i64 16, ptr nonnull %2) #12
  ret void
}